; Function Attrs: nounwind uwtable
define dso_local range(i32 4194304, 0) i32 @LockBufHdr(ptr noundef captures(none) %0) local_unnamed_addr #0 {
  %2 = alloca %struct.SpinDelayStatus, align 8
  call void @llvm.lifetime.start.p0(i64 40, ptr nonnull %2) #16
  store i32 0, ptr %2, align 8
  %3 = getelementptr inbounds nuw i8, ptr %2, i64 4
  store i32 0, ptr %3, align 4
  %4 = getelementptr inbounds nuw i8, ptr %2, i64 8
  store i32 0, ptr %4, align 8
  %5 = getelementptr inbounds nuw i8, ptr %2, i64 16
  store ptr @.str.3, ptr %5, align 8
  %6 = getelementptr inbounds nuw i8, ptr %2, i64 24
  store i32 5707, ptr %6, align 8
  %7 = getelementptr inbounds nuw i8, ptr %2, i64 32
  store ptr @__func__.LockBufHdr, ptr %7, align 8
  %8 = getelementptr inbounds nuw i8, ptr %0, i64 24
  %9 = atomicrmw or ptr %8, i32 4194304 seq_cst, align 4
  %10 = and i32 %9, 4194304
  %.not2 = icmp eq i32 %10, 0
  br i1 %.not2, label %._crit_edge, label %.lr.ph

.lr.ph:                                           ; preds = %1, %.lr.ph
  call void @perform_spin_delay(ptr noundef nonnull %2) #16
  %11 = atomicrmw or ptr %8, i32 4194304 seq_cst, align 4
  %12 = and i32 %11, 4194304
  %.not = icmp eq i32 %12, 0
  br i1 %.not, label %._crit_edge, label %.lr.ph

._crit_edge:                                      ; preds = %.lr.ph, %1
  %.lcssa = phi i32 [ %9, %1 ], [ %11, %.lr.ph ]
  call void @finish_spin_delay(ptr noundef nonnull %2) #16
  %13 = or disjoint i32 %.lcssa, 4194304
  call void @llvm.lifetime.end.p0(i64 40, ptr nonnull %2) #16
  ret i32 %13
}